; Function Attrs: inlinehint nounwind uwtable
define internal void @Abc_Print(i32 %0, ptr noundef %1, ...) unnamed_addr #3 {
  %3 = alloca [1 x %struct.__va_list_tag], align 16
  call void @llvm.lifetime.start.p0(i64 24, ptr nonnull %3) #10
  %4 = load i32, ptr @enable_dbg_outs, align 4, !tbaa !9
  %.not = icmp eq i32 %4, 0
  br i1 %.not, label %18, label %5

5:                                                ; preds = %2
  %6 = tail call i32 (...) @Abc_FrameIsBridgeMode() #10
  call void @llvm.va_start.p0(ptr nonnull %3)
  %7 = call i32 (...) @Abc_FrameIsBridgeMode() #10
  %.not9 = icmp eq i32 %7, 0
  br i1 %.not9, label %14, label %8

8:                                                ; preds = %5
  %9 = call ptr @vnsprintf(ptr noundef %1, ptr noundef nonnull %3) #10
  %10 = load ptr, ptr @stdout, align 8, !tbaa !11
  %11 = call i64 @strlen(ptr noundef nonnull dereferenceable(1) %9) #11
  %12 = trunc i64 %11 to i32
  %13 = call i32 @Gia_ManToBridgeText(ptr noundef %10, i32 noundef %12, ptr noundef nonnull %9) #10
  call void @free(ptr noundef %9) #10
  br label %17

14:                                               ; preds = %5
  %15 = load ptr, ptr @stdout, align 8, !tbaa !11, !noalias !14
  %16 = call i32 @vfprintf(ptr noundef %15, ptr noundef %1, ptr noundef nonnull %3) #10
  br label %17

17:                                               ; preds = %14, %8
  call void @llvm.va_end.p0(ptr nonnull %3)
  br label %18

18:                                               ; preds = %2, %17
  call void @llvm.lifetime.end.p0(i64 24, ptr nonnull %3) #10
  ret void
}